Certificate:
    Data:
        Version: 3 (0x2)
        Serial Number:
            6f:ee:1b:7d:e9:18:23:d1:f0:0a:84:1f:ec:c9:3b:81:74:e8:40:44
        Signature Algorithm: sha256WithRSAEncryption
        Issuer: C=FR, ST=France, O=Bluemind, CN=devenv.blue/emailAddress=math@devenv.blue
        Validity
            Not Before: Oct 25 13:43:26 2023 GMT
            Not After : Oct 25 13:43:26 2024 GMT
        Subject: C=FR, ST=Fr, L=Toulouse, O=Bluemind, CN=Mathilde Michau/emailAddress=math@devenv.blue
        Subject Public Key Info:
            Public Key Algorithm: rsaEncryption
                Public-Key: (2048 bit)
                Modulus:
                    00:d1:e6:75:89:eb:4c:de:f0:c2:6e:4e:8b:e2:94:
                    4d:8a:e8:ed:4c:33:18:bd:fc:c4:b4:98:b7:84:62:
                    d4:a5:5e:5f:ad:e7:ae:93:ce:91:1c:e8:d9:a4:c9:
                    47:27:a5:d1:4e:cf:ad:a4:49:87:73:25:50:4c:2c:
                    6a:97:ca:87:61:df:cc:9b:35:56:79:7d:08:11:34:
                    6f:ec:38:d3:8b:73:84:d6:a9:4e:87:55:95:85:fd:
                    c4:33:f1:da:82:d7:46:72:9d:5d:07:13:ec:16:eb:
                    7e:34:c1:15:62:75:5c:a7:15:f3:3f:7f:cf:6c:fb:
                    95:03:39:e0:d6:4a:3a:de:ca:91:42:f6:94:b6:c3:
                    c2:3d:8f:3a:55:e1:bd:27:72:73:4f:37:11:09:c1:
                    e4:76:e4:8b:f0:f2:b9:a7:f2:fd:dc:4b:56:ad:2e:
                    5b:9e:3f:7e:1a:3d:05:2d:f5:91:76:32:4d:8a:81:
                    4a:6d:a9:2a:fd:e7:c7:ea:2e:8a:24:3e:a9:d5:d4:
                    6c:87:07:a1:6a:44:1c:b9:7a:37:f7:02:65:8f:9a:
                    82:a9:7c:a8:a0:b8:f1:4a:f4:8a:1d:7d:dd:93:63:
                    52:e0:d3:eb:9d:76:7b:d0:35:7c:24:b9:f5:ff:92:
                    8e:81:d0:8a:0f:8f:6a:3e:10:0d:da:84:43:42:ff:
                    78:fd
                Exponent: 65537 (0x10001)
        X509v3 extensions:
            X509v3 Basic Constraints: 
                CA:FALSE
            X509v3 Subject Key Identifier: 
                74:13:78:DD:C1:80:E5:BB:C4:37:07:F4:DC:37:3B:22:C1:37:47:F7
            X509v3 Authority Key Identifier: 
                3B:69:30:C1:E8:2D:36:5F:F1:1E:5B:45:80:0B:41:61:58:49:6C:7D
    Signature Algorithm: sha256WithRSAEncryption
    Signature Value:
        49:91:7f:a1:30:81:d3:68:c2:ff:bb:de:bd:1f:32:91:19:6a:
        1d:fc:f9:e5:9e:34:c7:33:49:70:b2:e7:60:96:e2:d3:7c:bd:
        c1:3b:6d:54:2e:f6:15:b1:18:0a:a4:a7:4f:ee:ef:51:8b:d1:
        a4:06:92:b3:cb:e5:b7:c0:d2:ec:bc:16:f9:67:68:6a:f4:20:
        6a:e4:d7:ee:c7:86:9a:a8:f1:01:7d:af:c0:ea:33:53:16:3f:
        ff:61:24:70:c4:80:0b:46:03:2c:26:eb:1a:9d:0a:c1:17:d2:
        31:57:7c:dc:26:05:41:09:26:fb:e7:ac:d3:c9:15:4a:a0:7e:
        3f:01:64:ea:0c:42:62:72:ea:d1:c2:78:f5:2f:59:d1:88:ac:
        87:8b:37:2d:5b:fd:59:0f:10:9a:3e:bf:bc:2d:37:71:e6:35:
        b7:1e:75:47:e6:e5:de:17:9e:a0:fe:d1:9e:31:42:cc:a8:85:
        19:04:80:8a:33:ef:fb:5b:c5:6b:3f:ec:d5:a6:43:17:17:19:
        00:78:58:1c:0e:e5:ee:a5:d2:ce:81:7f:82:d6:12:de:24:06:
        50:73:ad:5d:1b:1d:1b:17:0e:99:7f:fe:e4:d6:14:aa:9d:c5:
        14:25:9d:95:29:e5:71:f0:82:91:40:01:21:1a:ec:26:1e:5f:
        45:13:30:ea
-----BEGIN CERTIFICATE-----
MIIDvjCCAqagAwIBAgIUb+4bfekYI9HwCoQf7Mk7gXToQEQwDQYJKoZIhvcNAQEL
BQAwaDELMAkGA1UEBhMCRlIxDzANBgNVBAgMBkZyYW5jZTERMA8GA1UECgwIQmx1
ZW1pbmQxFDASBgNVBAMMC2RldmVudi5ibHVlMR8wHQYJKoZIhvcNAQkBFhBtYXRo
QGRldmVudi5ibHVlMB4XDTIyMTAyNTEzNDMyNloXDTIzMTAyNTEzNDMyNlowezEL
MAkGA1UEBhMCRlIxCzAJBgNVBAgMAkZyMREwDwYDVQQHDAhUb3Vsb3VzZTERMA8G
A1UECgwIQmx1ZW1pbmQxGDAWBgNVBAMMD01hdGhpbGRlIE1pY2hhdTEfMB0GCSqG
SIb3DQEJARYQbWF0aEBkZXZlbnYuYmx1ZTCCASIwDQYJKoZIhvcNAQEBBQADggEP
ADCCAQoCggEBANHmdYnrTN7wwm5Oi+KUTYro7UwzGL38xLSYt4Ri1KVeX63nrpPO
kRzo2aTJRyel0U7PraRJh3MlUEwsapfKh2HfzJs1Vnl9CBE0b+w404tzhNapTodV
lYX9xDPx2oLXRnKdXQcT7BbrfjTBFWJ1XKcV8z9/z2z7lQM54NZKOt7KkUL2lLbD
wj2POlXhvSdyc083EQnB5Hbki/Dyuafy/dxLVq0uW54/fho9BS31kXYyTYqBSm2p
Kv3nx+ouiiQ+qdXUbIcHoWpEHLl6N/cCZY+agql8qKC48Ur0ih193ZNjUuDT6512
e9A1fCS59f+SjoHQig+Paj4QDdqEQ0L/eP0CAwEAAaNNMEswCQYDVR0TBAIwADAd
BgNVHQ4EFgQUdBN43cGA5bvENwf03Dc7IsE3R/cwHwYDVR0jBBgwFoAUO2kwwegt
Nl/xHltFgAtBYVhJbH0wDQYJKoZIhvcNAQELBQADggEBAEmRf6EwgdNowv+73r0f
MpEZah38+eWeNMczSXCy52CW4tN8vcE7bVQu9hWxGAqkp0/u71GL0aQGkrPL5bfA
0uy8FvlnaGr0IGrk1+7Hhpqo8QF9r8DqM1MWP/9hJHDEgAtGAywm6xqdCsEX0jFX
fNwmBUEJJvvnrNPJFUqgfj8BZOoMQmJy6tHCePUvWdGIrIeLNy1b/VkPEJo+v7wt
N3HmNbcedUfm5d4XnqD+0Z4xQsyohRkEgIoz7/tbxWs/7NWmQxcXGQB4WBwO5e6l
0s6Bf4LWEt4kBlBzrV0bHRsXDpl//uTWFKqdxRQlnZUp5XHwgpFAASEa7CYeX0UT
MOo=
-----END CERTIFICATE-----