Certificate:
    Data:
        Version: 3 (0x2)
        Serial Number:
            6f:ee:1b:7d:e9:18:23:d1:f0:0a:84:1f:ec:c9:3b:81:74:e8:40:4a
        Signature Algorithm: sha256WithRSAEncryption
        Issuer: C=FR, ST=France, O=Bluemind, CN=devenv.blue/emailAddress=math@devenv.blue
        Validity
            Not Before: Nov 17 15:37:24 2022 GMT
            Not After : Nov 17 15:37:24 2023 GMT
        Subject: C=FR, ST=France, L=Toulouse, O=Bluemind, CN=User Deux/emailAddress=deux@devenv.blue
        Subject Public Key Info:
            Public Key Algorithm: rsaEncryption
                Public-Key: (2048 bit)
                Modulus:
                    00:cc:c6:3d:ca:b8:04:ee:72:57:d4:94:e9:5d:da:
                    0d:77:e7:f1:09:85:cb:11:93:cf:4f:eb:4c:c3:06:
                    8a:9b:9a:82:d1:9d:30:0b:d8:f9:be:21:b2:bb:a6:
                    84:7b:14:37:02:31:05:3c:e7:be:04:12:f5:0f:b6:
                    d9:3d:03:67:54:73:90:54:4a:35:fd:b5:ee:88:62:
                    a6:60:4f:85:88:da:d5:be:73:b5:1f:ab:03:19:02:
                    95:26:57:bf:3d:32:57:12:b7:76:db:42:8c:57:4a:
                    87:f9:3e:82:b3:f1:39:3a:49:31:1a:3a:c3:91:70:
                    0f:29:32:7b:a1:9f:4d:7b:45:be:dc:5c:a6:7d:d9:
                    0b:54:17:5d:0b:3a:fb:d8:81:73:59:78:a1:19:4d:
                    dd:f5:d7:4c:a3:16:be:d2:32:b4:ee:46:1f:81:d6:
                    3d:14:fd:24:d4:90:90:ec:b7:d2:30:2d:7f:55:13:
                    36:18:ea:db:c9:f5:23:3e:37:e7:10:e2:94:a5:4a:
                    f2:ad:bf:1c:29:34:b4:3c:d2:84:5d:43:a7:23:3f:
                    c5:1d:03:db:41:d0:5f:14:af:ce:f9:ae:48:4e:a7:
                    00:ba:6d:ae:f8:26:f6:ab:b9:37:0e:5d:a3:f2:de:
                    71:99:f9:92:98:fb:3f:b9:a7:c5:ac:ef:ac:dd:c7:
                    d8:91
                Exponent: 65537 (0x10001)
        X509v3 extensions:
            X509v3 Basic Constraints: 
                CA:FALSE
            X509v3 Subject Key Identifier: 
                2A:B3:3F:3B:1D:E0:30:CF:16:01:F1:56:16:4E:CF:CB:FD:F7:42:64
            X509v3 Authority Key Identifier: 
                3B:69:30:C1:E8:2D:36:5F:F1:1E:5B:45:80:0B:41:61:58:49:6C:7D
    Signature Algorithm: sha256WithRSAEncryption
    Signature Value:
        5f:35:d8:db:9b:bd:cd:4b:30:e3:08:53:d4:bd:ae:94:e3:ba:
        5b:a2:52:65:db:e7:9e:b3:94:36:1c:c4:df:96:7c:f3:72:36:
        55:c2:44:52:30:76:e5:0a:9a:0e:ce:bc:fd:10:4c:60:a2:85:
        9a:c8:07:ec:81:a5:51:c0:f3:fe:83:69:ec:ab:e0:39:c4:94:
        21:72:42:55:cc:a2:88:df:dc:dc:51:34:f7:fd:be:7f:8e:d4:
        98:0e:50:d8:48:c5:c2:96:8f:5b:b1:9e:27:0b:3e:1f:bc:47:
        93:00:9b:0d:ee:39:6e:02:41:9e:23:ff:a8:4a:19:a6:62:79:
        fc:de:50:5b:1c:9c:dc:14:76:07:f3:db:4c:8b:4e:f7:06:60:
        e6:37:bb:af:3c:0c:dd:67:6e:22:9a:35:2b:3f:bf:1b:68:85:
        d9:fa:c2:8b:e4:02:8c:a8:6f:ed:29:27:1a:8f:91:77:cb:9f:
        0f:52:ab:4b:fc:9a:6c:47:a5:65:5d:17:b9:94:7c:6e:72:33:
        45:ab:81:da:59:be:85:7b:13:fe:db:1a:e1:d7:5f:e0:c6:91:
        9e:95:6d:95:00:35:81:10:0f:90:0f:d3:eb:f9:c8:67:36:38:
        be:32:26:9b:c9:77:f2:17:16:9b:3f:42:30:dc:1f:d6:c5:b6:
        8b:86:46:a8
-----BEGIN CERTIFICATE-----
MIIDvDCCAqSgAwIBAgIUb+4bfekYI9HwCoQf7Mk7gXToQEowDQYJKoZIhvcNAQEL
BQAwaDELMAkGA1UEBhMCRlIxDzANBgNVBAgMBkZyYW5jZTERMA8GA1UECgwIQmx1
ZW1pbmQxFDASBgNVBAMMC2RldmVudi5ibHVlMR8wHQYJKoZIhvcNAQkBFhBtYXRo
QGRldmVudi5ibHVlMB4XDTIyMTExNzE1MzcyNFoXDTIzMTExNzE1MzcyNFoweTEL
MAkGA1UEBhMCRlIxDzANBgNVBAgMBkZyYW5jZTERMA8GA1UEBwwIVG91bG91c2Ux
ETAPBgNVBAoMCEJsdWVtaW5kMRIwEAYDVQQDDAlVc2VyIERldXgxHzAdBgkqhkiG
9w0BCQEWEGRldXhAZGV2ZW52LmJsdWUwggEiMA0GCSqGSIb3DQEBAQUAA4IBDwAw
ggEKAoIBAQDMxj3KuATuclfUlOld2g135/EJhcsRk89P60zDBoqbmoLRnTAL2Pm+
IbK7poR7FDcCMQU8574EEvUPttk9A2dUc5BUSjX9te6IYqZgT4WI2tW+c7UfqwMZ
ApUmV789MlcSt3bbQoxXSof5PoKz8Tk6STEaOsORcA8pMnuhn017Rb7cXKZ92QtU
F10LOvvYgXNZeKEZTd3110yjFr7SMrTuRh+B1j0U/STUkJDst9IwLX9VEzYY6tvJ
9SM+N+cQ4pSlSvKtvxwpNLQ80oRdQ6cjP8UdA9tB0F8Ur875rkhOpwC6ba74Jvar
uTcOXaPy3nGZ+ZKY+z+5p8Ws76zdx9iRAgMBAAGjTTBLMAkGA1UdEwQCMAAwHQYD
VR0OBBYEFCqzPzsd4DDPFgHxVhZOz8v990JkMB8GA1UdIwQYMBaAFDtpMMHoLTZf
8R5bRYALQWFYSWx9MA0GCSqGSIb3DQEBCwUAA4IBAQBfNdjbm73NSzDjCFPUva6U
47pbolJl2+ees5Q2HMTflnzzcjZVwkRSMHblCpoOzrz9EExgooWayAfsgaVRwPP+
g2nsq+A5xJQhckJVzKKI39zcUTT3/b5/jtSYDlDYSMXClo9bsZ4nCz4fvEeTAJsN
7jluAkGeI/+oShmmYnn83lBbHJzcFHYH89tMi073BmDmN7uvPAzdZ24imjUrP78b
aIXZ+sKL5AKMqG/tKScaj5F3y58PUqtL/JpsR6VlXRe5lHxucjNFq4HaWb6FexP+
2xrh11/gxpGelW2VADWBEA+QD9Pr+chnNji+MiabyXfyFxabP0Iw3B/WxbaLhkao
-----END CERTIFICATE-----