Certificate:
    Data:
        Version: 3 (0x2)
        Serial Number: 0 (0x0)
    Signature Algorithm: sha1WithRSAEncryption
        Issuer: C=FR, ST=France, O=Blue Mind, OU=Blue Mind, CN=ca-bm-1390834305.blue-mind.net
        Validity
            Not Before: Jan 27 14:51:45 2014 GMT
            Not After : Mar 13 14:51:45 2034 GMT
        Subject: C=FR, ST=France, O=Blue Mind, OU=Blue Mind, CN=ca-bm-1390834305.blue-mind.net
        Subject Public Key Info:
            Public Key Algorithm: rsaEncryption
                Public-Key: (2048 bit)
                Modulus:
                    00:df:62:83:6f:c7:5d:c4:31:a5:bd:19:d9:41:3e:
                    5c:5a:34:10:84:cc:43:d9:ba:cf:b9:f1:f8:44:f5:
                    59:1c:3f:93:66:55:16:3e:39:a1:d6:51:18:95:51:
                    33:d7:83:fa:9e:fc:0d:64:d3:18:8d:26:38:eb:d7:
                    fe:c3:1f:6c:76:cd:64:7b:8a:e4:b2:b6:49:24:d3:
                    1c:d0:71:73:d1:01:92:50:9a:2c:39:de:3f:40:5b:
                    07:b0:d4:cf:dd:92:3c:44:54:d6:af:f5:f3:00:34:
                    96:58:e9:b6:50:c7:7f:87:3a:fc:00:e1:2f:29:b1:
                    27:9b:02:83:74:20:cb:ad:f8:fe:d8:5d:04:95:ea:
                    3e:ef:34:79:4b:bb:5f:6d:bb:43:db:5d:47:8f:6c:
                    20:fc:db:06:59:f1:51:83:6f:fa:23:28:78:9d:da:
                    16:a4:91:b3:a0:d8:9e:2e:2b:20:6d:a1:62:2c:ae:
                    86:89:74:c8:f4:6e:41:f9:d6:8a:70:01:4d:9c:56:
                    1d:83:e0:fe:5a:32:9e:25:aa:68:f3:30:b8:77:13:
                    e4:41:52:ef:e3:17:8c:a6:d5:ad:63:e1:5e:f5:7d:
                    44:8e:72:4d:c6:14:24:9d:1a:be:86:cd:63:ef:a8:
                    0d:0d:4e:ad:0f:2e:25:94:eb:3f:b9:21:4f:30:41:
                    5e:f3
                Exponent: 65537 (0x10001)
        X509v3 extensions:
            X509v3 Subject Key Identifier: 
                08:CB:61:9F:FC:66:1E:08:4E:13:FA:8E:8B:CB:90:32:69:E2:FB:10
            X509v3 Authority Key Identifier: 
                keyid:08:CB:61:9F:FC:66:1E:08:4E:13:FA:8E:8B:CB:90:32:69:E2:FB:10
                DirName:/C=FR/ST=France/O=Blue Mind/OU=Blue Mind/CN=ca-bm-1390834305.blue-mind.net
                serial:00

            X509v3 Basic Constraints: 
                CA:TRUE
            Netscape Cert Type: 
                SSL CA
    Signature Algorithm: sha1WithRSAEncryption
         48:da:49:2f:4f:9c:9f:72:ce:ac:46:60:d7:f1:bb:58:ad:b6:
         26:de:10:a4:7f:51:f4:1f:6c:33:c4:38:0a:fe:aa:f8:e8:54:
         31:76:ba:da:02:ff:b9:ed:fb:a6:af:34:5f:47:85:63:dc:ce:
         d0:29:9d:03:fe:0c:31:ad:19:a0:d1:8b:fc:b1:92:69:21:f3:
         07:a5:bb:19:9e:c8:6e:a6:67:0f:fe:59:85:44:b7:c9:7f:22:
         24:6e:7b:3c:7d:6d:6f:79:ce:8f:88:90:e9:d4:eb:c5:5f:4e:
         b8:67:49:19:c3:80:65:31:d4:a3:b0:d1:80:2f:cf:6a:ab:5f:
         86:4b:46:84:a7:43:4a:b4:7c:12:67:e5:e8:60:d2:c1:72:c7:
         4d:35:d8:6a:e7:0a:3f:e4:c9:f3:a4:d6:96:23:b1:ab:3d:b1:
         b6:b6:db:bf:84:5e:93:a1:46:c6:1f:59:e8:38:46:09:ca:93:
         8e:5c:f3:4f:da:c0:e3:e1:72:f4:f3:59:4c:6c:e2:b5:38:6e:
         f8:ab:e9:44:74:1d:b3:8b:fe:1f:11:93:bc:b1:77:ca:46:4f:
         42:ca:b9:ea:57:a6:b2:c0:76:03:42:72:e1:e5:45:24:de:f0:
         ab:28:b5:f5:b5:93:e1:7b:7b:a7:4b:6f:be:0a:f5:b0:6b:f0:
         f1:d3:89:fa
-----BEGIN CERTIFICATE-----
MIIEOTCCAyGgAwIBAgIBADANBgkqhkiG9w0BAQUFADBvMQswCQYDVQQGEwJGUjEP
MA0GA1UECBMGRnJhbmNlMRIwEAYDVQQKEwlCbHVlIE1pbmQxEjAQBgNVBAsTCUJs
dWUgTWluZDEnMCUGA1UEAxMeY2EtYm0tMTM5MDgzNDMwNS5ibHVlLW1pbmQubmV0
MB4XDTE0MDEyNzE0NTE0NVoXDTM0MDMxMzE0NTE0NVowbzELMAkGA1UEBhMCRlIx
DzANBgNVBAgTBkZyYW5jZTESMBAGA1UEChMJQmx1ZSBNaW5kMRIwEAYDVQQLEwlC
bHVlIE1pbmQxJzAlBgNVBAMTHmNhLWJtLTEzOTA4MzQzMDUuYmx1ZS1taW5kLm5l
dDCCASIwDQYJKoZIhvcNAQEBBQADggEPADCCAQoCggEBAN9ig2/HXcQxpb0Z2UE+
XFo0EITMQ9m6z7nx+ET1WRw/k2ZVFj45odZRGJVRM9eD+p78DWTTGI0mOOvX/sMf
bHbNZHuK5LK2SSTTHNBxc9EBklCaLDneP0BbB7DUz92SPERU1q/18wA0lljptlDH
f4c6/ADhLymxJ5sCg3Qgy634/thdBJXqPu80eUu7X227Q9tdR49sIPzbBlnxUYNv
+iMoeJ3aFqSRs6DYni4rIG2hYiyuhol0yPRuQfnWinABTZxWHYPg/loyniWqaPMw
uHcT5EFS7+MXjKbVrWPhXvV9RI5yTcYUJJ0avobNY++oDQ1OrQ8uJZTrP7khTzBB
XvMCAwEAAaOB3zCB3DAdBgNVHQ4EFgQUCMthn/xmHghOE/qOi8uQMmni+xAwgZkG
A1UdIwSBkTCBjoAUCMthn/xmHghOE/qOi8uQMmni+xChc6RxMG8xCzAJBgNVBAYT
AkZSMQ8wDQYDVQQIEwZGcmFuY2UxEjAQBgNVBAoTCUJsdWUgTWluZDESMBAGA1UE
CxMJQmx1ZSBNaW5kMScwJQYDVQQDEx5jYS1ibS0xMzkwODM0MzA1LmJsdWUtbWlu
ZC5uZXSCAQAwDAYDVR0TBAUwAwEB/zARBglghkgBhvhCAQEEBAMCAgQwDQYJKoZI
hvcNAQEFBQADggEBAEjaSS9PnJ9yzqxGYNfxu1ittibeEKR/UfQfbDPEOAr+qvjo
VDF2utoC/7nt+6avNF9HhWPcztApnQP+DDGtGaDRi/yxkmkh8weluxmeyG6mZw/+
WYVEt8l/IiRuezx9bW95zo+IkOnU68VfTrhnSRnDgGUx1KOw0YAvz2qrX4ZLRoSn
Q0q0fBJn5ehg0sFyx0012GrnCj/kyfOk1pYjsas9sba227+EXpOhRsYfWeg4RgnK
k45c80/awOPhcvTzWUxs4rU4bvir6UR0HbOL/h8Rk7yxd8pGT0LKuepXprLAdgNC
cuHlRSTe8KsotfW1k+F7e6dLb74K9bBr8PHTifo=
-----END CERTIFICATE-----
