Certificate:
    Data:
        Version: 3 (0x2)
        Serial Number: 0 (0x0)
        Signature Algorithm: sha256WithRSAEncryption
        Issuer: C=FR, ST=France, O=BlueMind, OU=BlueMind, CN=ca-bm-1707412267.blue-mind.net
        Validity
            Not Before: Feb  8 17:11:07 2024 GMT
            Not After : Nov  7 17:11:07 2052 GMT
        Subject: C=FR, ST=France, O=BlueMind, OU=BlueMind, CN=ca-bm-1707412267.blue-mind.net
        Subject Public Key Info:
            Public Key Algorithm: rsaEncryption
                Public-Key: (2048 bit)
                Modulus:
                    00:bd:e3:eb:49:d8:c1:a9:da:22:90:58:e6:55:37:
                    a5:4f:c3:3c:87:65:97:ad:69:14:2e:99:f0:8c:7e:
                    e7:c8:e4:0c:5b:34:a1:e9:6d:a3:87:5a:a9:43:45:
                    2b:48:4a:7d:e4:79:aa:a7:f2:e1:f7:c2:7f:12:b0:
                    4a:9a:94:64:44:ae:9a:14:4c:c8:25:98:b9:1c:a9:
                    30:57:33:55:64:6c:99:3c:6e:ef:2d:48:a8:bb:96:
                    15:29:e2:18:91:c6:1b:22:91:9b:36:1d:a1:4e:f5:
                    78:14:88:92:e2:c6:93:ac:2c:d6:fd:90:96:53:ac:
                    31:57:ba:d7:e2:c0:2b:fa:43:18:d2:74:65:fc:75:
                    56:4c:d0:88:e3:22:71:49:11:54:4c:35:aa:c7:47:
                    f6:03:f5:97:8a:1e:ba:7c:4d:ab:4c:9f:be:e6:7a:
                    42:bd:c9:e3:a6:24:92:11:33:71:1f:5e:b3:3d:60:
                    dc:e3:67:10:a7:e2:23:ec:c4:c7:f2:3c:ed:88:27:
                    fe:57:a2:17:b6:0c:e8:7c:95:e6:be:58:5d:a6:34:
                    c8:ad:b3:f3:19:f9:4c:c6:54:e8:6b:0d:b0:4a:e5:
                    96:dd:18:cb:d8:f0:a1:e4:97:d0:33:8d:33:d5:ad:
                    86:82:de:57:c3:74:56:af:38:91:2c:49:aa:0f:d4:
                    31:4b
                Exponent: 65537 (0x10001)
        X509v3 extensions:
            X509v3 Subject Key Identifier: 
                A1:17:3F:98:82:07:15:23:CF:82:A8:AC:9F:87:51:D7:B6:A7:3C:A8
            X509v3 Authority Key Identifier: 
                keyid:A1:17:3F:98:82:07:15:23:CF:82:A8:AC:9F:87:51:D7:B6:A7:3C:A8
                DirName:/C=FR/ST=France/O=BlueMind/OU=BlueMind/CN=ca-bm-1707412267.blue-mind.net
                serial:00
            X509v3 Basic Constraints: 
                CA:TRUE
            Netscape Cert Type: 
                SSL CA
    Signature Algorithm: sha256WithRSAEncryption
    Signature Value:
        5f:d3:17:9d:b2:8a:0e:8a:5d:a7:f6:d8:8b:d4:0c:49:74:33:
        80:bd:e0:db:0d:f6:47:7d:4b:54:6c:53:72:41:c0:2f:70:ad:
        93:c8:23:72:12:6f:ae:f6:ea:48:13:3d:ee:c2:38:23:d4:55:
        e0:03:67:b1:d7:53:a9:3b:e7:24:91:1f:79:a0:c6:d2:e2:78:
        bf:07:15:5f:3a:bf:5d:77:70:d6:43:02:8e:8e:97:9b:67:ba:
        4a:a0:2a:2c:6b:c4:8f:71:da:39:47:83:a9:5d:cd:f5:1c:a7:
        e0:f2:d4:ce:97:3e:60:37:e5:b4:f2:61:65:0c:80:52:4d:8c:
        80:95:c6:99:7e:77:c3:5d:15:4b:05:bc:d3:9e:c4:39:ec:b0:
        a7:3d:bd:c0:c3:b7:71:6b:28:7b:9e:7c:c7:0c:e3:ea:01:da:
        3a:db:c7:e1:db:cd:f5:99:f6:78:62:eb:f1:18:f3:74:e7:e1:
        c6:26:14:d2:cd:f5:43:46:64:51:72:64:25:04:f2:08:53:ce:
        36:f3:3a:c1:5b:6e:14:aa:d7:08:15:1c:31:f0:df:2b:d2:b1:
        79:79:93:ce:49:bc:30:b0:ef:0a:dd:70:aa:7e:de:46:3b:03:
        4d:fb:4f:32:73:ab:59:07:75:f5:f4:6f:2a:00:6f:2e:25:73:
        4e:2b:5b:27
-----BEGIN CERTIFICATE-----
MIIENTCCAx2gAwIBAgIBADANBgkqhkiG9w0BAQsFADBtMQswCQYDVQQGEwJGUjEP
MA0GA1UECAwGRnJhbmNlMREwDwYDVQQKDAhCbHVlTWluZDERMA8GA1UECwwIQmx1
ZU1pbmQxJzAlBgNVBAMMHmNhLWJtLTE3MDc0MTIyNjcuYmx1ZS1taW5kLm5ldDAg
Fw0yNDAyMDgxNzExMDdaGA8yMDUyMTEwNzE3MTEwN1owbTELMAkGA1UEBhMCRlIx
DzANBgNVBAgMBkZyYW5jZTERMA8GA1UECgwIQmx1ZU1pbmQxETAPBgNVBAsMCEJs
dWVNaW5kMScwJQYDVQQDDB5jYS1ibS0xNzA3NDEyMjY3LmJsdWUtbWluZC5uZXQw
ggEiMA0GCSqGSIb3DQEBAQUAA4IBDwAwggEKAoIBAQC94+tJ2MGp2iKQWOZVN6VP
wzyHZZetaRQumfCMfufI5AxbNKHpbaOHWqlDRStISn3keaqn8uH3wn8SsEqalGRE
rpoUTMglmLkcqTBXM1VkbJk8bu8tSKi7lhUp4hiRxhsikZs2HaFO9XgUiJLixpOs
LNb9kJZTrDFXutfiwCv6QxjSdGX8dVZM0IjjInFJEVRMNarHR/YD9ZeKHrp8TatM
n77mekK9yeOmJJIRM3EfXrM9YNzjZxCn4iPsxMfyPO2IJ/5Xohe2DOh8lea+WF2m
NMits/MZ+UzGVOhrDbBK5ZbdGMvY8KHkl9AzjTPVrYaC3lfDdFavOJEsSaoP1DFL
AgMBAAGjgd0wgdowHQYDVR0OBBYEFKEXP5iCBxUjz4KorJ+HUde2pzyoMIGXBgNV
HSMEgY8wgYyAFKEXP5iCBxUjz4KorJ+HUde2pzyooXGkbzBtMQswCQYDVQQGEwJG
UjEPMA0GA1UECAwGRnJhbmNlMREwDwYDVQQKDAhCbHVlTWluZDERMA8GA1UECwwI
Qmx1ZU1pbmQxJzAlBgNVBAMMHmNhLWJtLTE3MDc0MTIyNjcuYmx1ZS1taW5kLm5l
dIIBADAMBgNVHRMEBTADAQH/MBEGCWCGSAGG+EIBAQQEAwICBDANBgkqhkiG9w0B
AQsFAAOCAQEAX9MXnbKKDopdp/bYi9QMSXQzgL3g2w32R31LVGxTckHAL3Ctk8gj
chJvrvbqSBM97sI4I9RV4ANnsddTqTvnJJEfeaDG0uJ4vwcVXzq/XXdw1kMCjo6X
m2e6SqAqLGvEj3HaOUeDqV3N9Ryn4PLUzpc+YDfltPJhZQyAUk2MgJXGmX53w10V
SwW8057EOeywpz29wMO3cWsoe558xwzj6gHaOtvH4dvN9Zn2eGLr8RjzdOfhxiYU
0s31Q0ZkUXJkJQTyCFPONvM6wVtuFKrXCBUcMfDfK9KxeXmTzkm8MLDvCt1wqn7e
RjsDTftPMnOrWQd19fRvKgBvLiVzTitbJw==
-----END CERTIFICATE-----
