Certificate:
    Data:
        Version: 1 (0x0)
        Serial Number: 1 (0x1)
    Signature Algorithm: sha1WithRSAEncryption
        Issuer: C=FR, ST=France, O=Blue Mind, OU=Blue Mind, CN=ca-bm-1392052478.blue-mind.net
        Validity
            Not Before: Feb 10 17:14:40 2014 GMT
            Not After : Feb  8 17:14:40 2024 GMT
        Subject: C=FR, ST=France, O=Blue Mind, OU=Blue Mind, CN=vm1.bm.lan
        Subject Public Key Info:
            Public Key Algorithm: rsaEncryption
                Public-Key: (2048 bit)
                Modulus:
                    00:e3:05:e0:ba:95:6d:20:8e:1e:7e:3e:e8:24:5d:
                    2c:23:0e:2e:28:4e:11:7f:55:27:52:49:a7:b6:c4:
                    6f:a2:06:a6:3d:67:9a:21:33:0d:a7:19:e5:a4:a9:
                    3a:dc:f8:60:aa:63:64:18:1f:9e:a5:8e:95:42:db:
                    9c:d0:9a:24:0a:2d:dd:85:97:3b:ea:12:4a:1b:c8:
                    e4:86:ba:5b:67:ab:20:2a:b0:80:e7:9c:9f:a0:5b:
                    ea:32:4a:9b:25:31:a5:eb:8c:dc:67:3c:2c:cb:13:
                    e8:c0:09:3e:e2:95:ee:95:4a:cc:19:b7:ee:0a:4d:
                    b7:d4:9f:85:ae:45:de:76:70:88:c9:28:0a:dc:29:
                    7c:1c:2c:61:5a:77:3d:bf:05:8f:dd:5a:89:2d:c1:
                    af:37:07:e8:2b:35:fd:63:2d:9f:5f:0c:77:4d:d9:
                    1e:f7:63:e4:9b:e3:42:fd:da:08:a2:2c:dc:b5:9e:
                    56:a8:3e:3d:59:24:b2:84:64:52:64:2e:fe:ad:6c:
                    83:d9:c2:11:4e:1e:ce:fb:e9:49:04:92:43:f7:1e:
                    ab:cd:51:f2:92:c1:3f:53:53:e0:3b:47:37:88:4f:
                    41:21:e0:c0:34:72:12:b7:02:5a:c4:8c:a2:7b:01:
                    fe:e6:ef:10:f9:0b:dc:69:f9:4e:14:8b:dd:1d:fc:
                    14:89
                Exponent: 65537 (0x10001)
    Signature Algorithm: sha1WithRSAEncryption
         10:d2:c9:be:f1:8f:df:c0:40:2d:ba:77:bb:e2:bf:2d:50:42:
         10:a5:ec:f2:32:e9:82:be:75:a7:88:8f:7a:d9:35:cb:9b:e7:
         60:ad:ee:30:b5:78:b7:2b:69:5b:77:95:25:49:83:57:63:eb:
         5f:9e:33:49:ef:1a:23:df:71:92:ed:bf:cd:59:7c:53:d5:d3:
         ea:28:37:47:43:3a:19:f0:74:cb:f6:bb:84:79:74:58:3e:9f:
         a3:94:ef:ef:36:53:33:11:72:79:94:f2:1f:4f:6c:b4:1d:9d:
         51:7f:8f:6c:b4:9b:42:36:57:06:b1:d7:ec:f2:23:af:4c:63:
         dd:e9:94:33:b0:d4:c6:2f:36:3b:5c:0c:a2:b9:9d:60:c8:c9:
         9f:84:87:da:23:ff:8e:22:90:94:76:86:96:24:ef:27:9f:bb:
         a5:22:6e:e2:8b:b3:71:98:7e:c4:ab:11:1a:42:a5:1b:ab:ad:
         d7:10:d6:ae:70:29:7c:16:e4:45:16:55:52:23:3c:ae:31:31:
         8c:e2:15:a5:cf:7c:ed:b6:c4:df:7a:21:51:e9:29:ae:a4:d0:
         80:96:1f:c5:0e:47:23:87:30:1f:f9:be:a0:9a:54:d9:25:65:
         02:d4:88:53:99:90:ee:0e:6b:21:d2:10:12:41:75:0e:6a:0e:
         ee:c2:2e:fc
-----BEGIN CERTIFICATE-----
MIIDPjCCAiYCAQEwDQYJKoZIhvcNAQEFBQAwbzELMAkGA1UEBhMCRlIxDzANBgNV
BAgTBkZyYW5jZTESMBAGA1UEChMJQmx1ZSBNaW5kMRIwEAYDVQQLEwlCbHVlIE1p
bmQxJzAlBgNVBAMTHmNhLWJtLTEzOTIwNTI0NzguYmx1ZS1taW5kLm5ldDAeFw0x
NDAyMTAxNzE0NDBaFw0yNDAyMDgxNzE0NDBaMFsxCzAJBgNVBAYTAkZSMQ8wDQYD
VQQIEwZGcmFuY2UxEjAQBgNVBAoTCUJsdWUgTWluZDESMBAGA1UECxMJQmx1ZSBN
aW5kMRMwEQYDVQQDEwp2bTEuYm0ubGFuMIIBIjANBgkqhkiG9w0BAQEFAAOCAQ8A
MIIBCgKCAQEA4wXgupVtII4efj7oJF0sIw4uKE4Rf1UnUkmntsRvogamPWeaITMN
pxnlpKk63PhgqmNkGB+epY6VQtuc0JokCi3dhZc76hJKG8jkhrpbZ6sgKrCA55yf
oFvqMkqbJTGl64zcZzwsyxPowAk+4pXulUrMGbfuCk231J+FrkXednCIySgK3Cl8
HCxhWnc9vwWP3VqJLcGvNwfoKzX9Yy2fXwx3Tdke92Pkm+NC/doIoizctZ5WqD49
WSSyhGRSZC7+rWyD2cIRTh7O++lJBJJD9x6rzVHyksE/U1PgO0c3iE9BIeDANHIS
twJaxIyiewH+5u8Q+QvcaflOFIvdHfwUiQIDAQABMA0GCSqGSIb3DQEBBQUAA4IB
AQAQ0sm+8Y/fwEAtune74r8tUEIQpezyMumCvnWniI962TXLm+dgre4wtXi3K2lb
d5UlSYNXY+tfnjNJ7xoj33GS7b/NWXxT1dPqKDdHQzoZ8HTL9ruEeXRYPp+jlO/v
NlMzEXJ5lPIfT2y0HZ1Rf49stJtCNlcGsdfs8iOvTGPd6ZQzsNTGLzY7XAyiuZ1g
yMmfhIfaI/+OIpCUdoaWJO8nn7ulIm7ii7NxmH7EqxEaQqUbq63XENaucCl8FuRF
FlVSIzyuMTGM4hWlz3zttsTfeiFR6SmupNCAlh/FDkcjhzAf+b6gmlTZJWUC1IhT
mZDuDmsh0hASQXUOag7uwi78
-----END CERTIFICATE-----
-----BEGIN CERTIFICATE-----
MIIEOTCCAyGgAwIBAgIBADANBgkqhkiG9w0BAQUFADBvMQswCQYDVQQGEwJGUjEP
MA0GA1UECBMGRnJhbmNlMRIwEAYDVQQKEwlCbHVlIE1pbmQxEjAQBgNVBAsTCUJs
dWUgTWluZDEnMCUGA1UEAxMeY2EtYm0tMTM5MjA1MjQ3OC5ibHVlLW1pbmQubmV0
MB4XDTE0MDIxMDE3MTQzOVoXDTM0MDMyNzE3MTQzOVowbzELMAkGA1UEBhMCRlIx
DzANBgNVBAgTBkZyYW5jZTESMBAGA1UEChMJQmx1ZSBNaW5kMRIwEAYDVQQLEwlC
bHVlIE1pbmQxJzAlBgNVBAMTHmNhLWJtLTEzOTIwNTI0NzguYmx1ZS1taW5kLm5l
dDCCASIwDQYJKoZIhvcNAQEBBQADggEPADCCAQoCggEBAOJGQx1/J2pXtwyG1T8n
2CywzMWZDz7uPIXbD4xkPMaMgnt1ucpVeUYFfstX9NzawIXlD/agf/yHTwv3WXfG
I8jR3jP+kLo+XqRvqpcqoC05hXtouVut/hPbYC5ol6aV9MPQnBBz9aLorGcFcaVN
fz3qeQw8kN5qk1SISpg8LBNpRkrysloimG3/kfSlh182MNi3QOFrphM43nsRqry0
TH3L3iOUkQ5VWhDZyvN7qk++b8s1hTBwTx2hb9rT3f+mYhAN4F1lynbl3Dt8uPxt
g+KdZF7wVqSag2msuxVH6mAwyQYuQi/2Enaepod8H2RnZHx3e9CzasB2fHGzYiQ+
ZmsCAwEAAaOB3zCB3DAdBgNVHQ4EFgQUo7lRf6pXeN7MlT/mPd3lGDzRrdkwgZkG
A1UdIwSBkTCBjoAUo7lRf6pXeN7MlT/mPd3lGDzRrdmhc6RxMG8xCzAJBgNVBAYT
AkZSMQ8wDQYDVQQIEwZGcmFuY2UxEjAQBgNVBAoTCUJsdWUgTWluZDESMBAGA1UE
CxMJQmx1ZSBNaW5kMScwJQYDVQQDEx5jYS1ibS0xMzkyMDUyNDc4LmJsdWUtbWlu
ZC5uZXSCAQAwDAYDVR0TBAUwAwEB/zARBglghkgBhvhCAQEEBAMCAgQwDQYJKoZI
hvcNAQEFBQADggEBANinpQbqSJKirAqWy5gmi0pV3iO7EFhCkrV+8zN2qYM2EmAn
bvVopOHSlI70NECjYtJeY4o5rhjNymG61eXPWCSm7jV3YEcmc6FwHTvF0FBVpyaR
QeuRiwUgiNasQLyUYGkb0ibdqWKb5XxgxXicr5J2ASgLLiNB9njl6EG0gWtfz9rZ
sJ4CjbsDSbIpM268wL6dv/8bVpIR/RF8+X7iQTRPrrAm6z+2O1HyM7e84DmiC9oq
hRB8Ot7lrnH0heSDVh4IuYZw0OLhXNGHrTWDISa0JJizr2EEFsb5VEFJsZctnESE
dmPWyyj0XSu3ILKBBuD/WWdlFzcsBFZufzePoyw=
-----END CERTIFICATE-----
