Certificate:
    Data:
        Version: 3 (0x2)
        Serial Number: 1 (0x1)
        Signature Algorithm: sha256WithRSAEncryption
        Issuer: C=FR, ST=France, O=BlueMind, OU=BlueMind, CN=ca-bm-1707412267.blue-mind.net
        Validity
            Not Before: Feb  8 17:11:07 2024 GMT
            Not After : Nov  6 17:11:07 2052 GMT
        Subject: C=FR, ST=France, O=Blue Mind, OU=Blue Mind, CN=*.168.196.128
        Subject Public Key Info:
            Public Key Algorithm: rsaEncryption
                Public-Key: (2048 bit)
                Modulus:
                    00:b5:30:0a:d7:ab:ab:d4:ff:f5:e9:16:00:5e:93:
                    89:d1:d5:da:c2:76:15:9f:dd:11:70:97:96:ba:27:
                    f2:59:02:12:71:c0:ac:9a:b0:22:bb:a0:1e:ba:4f:
                    b1:70:d1:70:ed:1c:e5:a7:c9:3b:3e:63:b4:3b:d6:
                    3f:09:79:88:da:ac:81:22:37:97:6d:d9:c0:c4:dc:
                    60:42:e0:3a:99:52:00:33:f6:a2:90:80:a2:55:bc:
                    27:40:e5:ff:15:d9:4d:99:29:2e:53:79:5b:21:72:
                    75:9b:ee:64:2c:d1:ea:61:e6:23:ab:8f:18:91:23:
                    43:a4:e3:e9:ce:aa:2c:ec:55:a1:0c:ca:8b:a7:bd:
                    59:70:f4:ff:bc:d9:8d:c3:d8:fa:e8:13:3a:d3:3b:
                    f7:99:48:0c:6a:35:ce:63:ef:d7:40:42:bb:f6:cf:
                    57:84:19:4c:af:1f:36:54:ba:8b:9f:04:a3:80:2b:
                    b1:b0:df:e6:6d:29:3a:45:ef:31:f4:e9:87:cd:b1:
                    da:8a:e8:20:b1:4c:5c:50:e2:01:d2:3c:db:b3:98:
                    fa:e0:58:e7:e9:c1:21:72:08:89:1d:35:38:df:07:
                    27:e6:73:26:9e:b7:b5:89:23:65:35:44:ef:a0:a0:
                    26:eb:08:e1:b1:bb:77:d4:ef:ef:a5:c1:12:58:11:
                    15:fb
                Exponent: 65537 (0x10001)
        X509v3 extensions:
            X509v3 Extended Key Usage: 
                TLS Web Server Authentication, TLS Web Client Authentication
            X509v3 Basic Constraints: 
                CA:FALSE
            X509v3 Key Usage: 
                Digital Signature, Non Repudiation, Key Encipherment
            X509v3 Subject Alternative Name: 
                DNS:*.168.196.128, DNS:168.196.128
            X509v3 Subject Key Identifier: 
                54:F4:25:B2:52:44:5A:D5:24:7A:C2:AE:2F:27:23:1D:34:DC:94:5F
            X509v3 Authority Key Identifier: 
                A1:17:3F:98:82:07:15:23:CF:82:A8:AC:9F:87:51:D7:B6:A7:3C:A8
    Signature Algorithm: sha256WithRSAEncryption
    Signature Value:
        a4:ff:d6:ca:00:03:e3:33:b9:60:79:56:2b:be:58:f8:9b:97:
        6d:57:9a:61:5a:d6:8d:7f:bb:ea:c7:6d:aa:f9:4d:23:84:89:
        07:4a:ba:37:a4:b5:cb:2c:a6:f8:d2:d7:87:c2:13:2a:0d:72:
        cc:9c:f5:fb:63:35:30:de:d0:d4:02:0d:9b:26:3b:85:66:8a:
        de:d9:f9:f6:64:a5:79:e2:07:13:f6:9c:3d:06:ab:e6:5a:26:
        53:cf:9a:7b:9e:89:c2:e9:20:0a:15:c8:ac:93:9d:08:58:34:
        ef:79:10:4f:13:92:d9:bf:3a:b1:aa:68:cf:69:58:77:af:1c:
        c7:2e:76:2f:78:aa:ea:cd:02:54:96:6c:15:84:e9:7e:b0:1a:
        4e:1e:a5:ec:7a:d7:2d:29:ba:6d:3a:60:9c:25:34:b3:9d:19:
        9a:26:34:1b:97:2c:d8:4c:1c:f4:f6:a7:b2:a5:40:65:59:55:
        64:61:28:fb:75:50:f5:30:0b:e4:be:a9:65:2c:21:1c:84:70:
        4e:7f:0b:5d:99:1c:0b:1d:de:43:58:d4:e7:8d:62:64:83:6f:
        90:3f:54:43:1f:6d:14:c7:19:3f:5e:7a:2d:2a:2a:80:3e:1a:
        8b:8e:15:51:3e:b8:12:19:0c:a6:b9:7b:d8:73:9c:ec:27:90:
        70:a1:bd:6a
-----BEGIN CERTIFICATE-----
MIID6jCCAtKgAwIBAgIBATANBgkqhkiG9w0BAQsFADBtMQswCQYDVQQGEwJGUjEP
MA0GA1UECAwGRnJhbmNlMREwDwYDVQQKDAhCbHVlTWluZDERMA8GA1UECwwIQmx1
ZU1pbmQxJzAlBgNVBAMMHmNhLWJtLTE3MDc0MTIyNjcuYmx1ZS1taW5kLm5ldDAg
Fw0yNDAyMDgxNzExMDdaGA8yMDUyMTEwNjE3MTEwN1owXjELMAkGA1UEBhMCRlIx
DzANBgNVBAgMBkZyYW5jZTESMBAGA1UECgwJQmx1ZSBNaW5kMRIwEAYDVQQLDAlC
bHVlIE1pbmQxFjAUBgNVBAMMDSouMTY4LjE5Ni4xMjgwggEiMA0GCSqGSIb3DQEB
AQUAA4IBDwAwggEKAoIBAQC1MArXq6vU//XpFgBek4nR1drCdhWf3RFwl5a6J/JZ
AhJxwKyasCK7oB66T7Fw0XDtHOWnyTs+Y7Q71j8JeYjarIEiN5dt2cDE3GBC4DqZ
UgAz9qKQgKJVvCdA5f8V2U2ZKS5TeVshcnWb7mQs0eph5iOrjxiRI0Ok4+nOqizs
VaEMyounvVlw9P+82Y3D2ProEzrTO/eZSAxqNc5j79dAQrv2z1eEGUyvHzZUuouf
BKOAK7Gw3+ZtKTpF7zH06YfNsdqK6CCxTFxQ4gHSPNuzmPrgWOfpwSFyCIkdNTjf
Byfmcyaet7WJI2U1RO+goCbrCOGxu3fU7++lwRJYERX7AgMBAAGjgaEwgZ4wHQYD
VR0lBBYwFAYIKwYBBQUHAwEGCCsGAQUFBwMCMAkGA1UdEwQCMAAwCwYDVR0PBAQD
AgXgMCUGA1UdEQQeMByCDSouMTY4LjE5Ni4xMjiCCzE2OC4xOTYuMTI4MB0GA1Ud
DgQWBBRU9CWyUkRa1SR6wq4vJyMdNNyUXzAfBgNVHSMEGDAWgBShFz+YggcVI8+C
qKyfh1HXtqc8qDANBgkqhkiG9w0BAQsFAAOCAQEApP/WygAD4zO5YHlWK75Y+JuX
bVeaYVrWjX+76sdtqvlNI4SJB0q6N6S1yyym+NLXh8ITKg1yzJz1+2M1MN7Q1AIN
myY7hWaK3tn59mSleeIHE/acPQar5lomU8+ae56JwukgChXIrJOdCFg073kQTxOS
2b86sapoz2lYd68cxy52L3iq6s0CVJZsFYTpfrAaTh6l7HrXLSm6bTpgnCU0s50Z
miY0G5cs2Ewc9PansqVAZVlVZGEo+3VQ9TAL5L6pZSwhHIRwTn8LXZkcCx3eQ1jU
541iZINvkD9UQx9tFMcZP156LSoqgD4ai44VUT64EhkMprl72HOc7CeQcKG9ag==
-----END CERTIFICATE-----
-----BEGIN PRIVATE KEY-----
MIIEvgIBADANBgkqhkiG9w0BAQEFAASCBKgwggSkAgEAAoIBAQC1MArXq6vU//Xp
FgBek4nR1drCdhWf3RFwl5a6J/JZAhJxwKyasCK7oB66T7Fw0XDtHOWnyTs+Y7Q7
1j8JeYjarIEiN5dt2cDE3GBC4DqZUgAz9qKQgKJVvCdA5f8V2U2ZKS5TeVshcnWb
7mQs0eph5iOrjxiRI0Ok4+nOqizsVaEMyounvVlw9P+82Y3D2ProEzrTO/eZSAxq
Nc5j79dAQrv2z1eEGUyvHzZUuoufBKOAK7Gw3+ZtKTpF7zH06YfNsdqK6CCxTFxQ
4gHSPNuzmPrgWOfpwSFyCIkdNTjfByfmcyaet7WJI2U1RO+goCbrCOGxu3fU7++l
wRJYERX7AgMBAAECggEATCPiwowZWxqvJ+K/h/7/MSdp1UNTRglb/VEunY8Q6DeX
MadSwXSYO/mHQCsiOXNCPdphZfeKBmdWw7h+aAhjKuXIJG1xHNAfknq7lw7sgSa1
ACE6Yngz/8xgQIUGg5N8aQsltR1v3uffJYZyIWWbVcWlIsCxBbjogb/nLppT44JH
YFL/dK6iyiaaeg+gk0x++pCyup0gagbXEmEiSKGisEGbM2Q41Hj22BOorNMp+KQX
GJ3hZQqU8Fp0Ph9G7wnNwVQjxnw4gb3PpJfxN0dtq8PgNG79ergxj3dhr8vGfrQy
GHJUQTM8Ozrxati4lsJeeDDpaLRcpA5Niihwr5u0JQKBgQC5CtZ4um7orhjxH8Zl
t5u2zbXxhLEaV6iTlMjfcNvxrIz9OjJaIZ+iWbsR0hcyy510Ne4TSxz+qBfOeGqo
lgYLaBsiTAPHGkC3iILi2rf7LF6ri92DQqUoHWjGN+Uq9uzQza8ukdKErEKwp/bI
7lSugBCBzjLCqPFvuwwmrDAgrQKBgQD6qs0H2F4fQHSVihjotap60d4wBmqGe3rU
IF4m9g2Re4VD6qnTHd4o3xkOghwXa6bhFywG7y9NyZT7kJTfbK94hPiTef8wxQWw
6ND9zH+jutg+YbGQHIlWHaM9s0aiqBCqYwlVgY1659g+vnelfGVT++Va8UxIzVux
yXnRNireRwKBgQCamX51IbZ2OrbmBlk5NL0pbxdbMTTSwHg8zWtCm8V3VmX5T/0v
prX766JLEk+Fhe8IX+KIRhJ0hTZWr+7U6XslXpaFAiOJ3tpBPRG1vW1HsltqUhIB
j9Xy/RdDvQF/8wwKrD531yee51lUxRB/8ffYT3D7Mq7gSkxlwE43pVcUhQKBgQC4
XDDqCTfIknZsmaISXbKiHILnHYDxohXHuHqm+ycljgyI1CnNTVVdCCD8q7MPgqy9
Nna6LubCtnUtxLvJy70OzfWpOfv3maDC6aj0UZi7CiwLTXzz+hkETk4GjjlwXl3L
g4WU7vDoqWZBV4LWIrS/3S9mALzTer5q9zzyI33J9wKBgHO0nW31O623P3wgcIFG
bq5nJqMTU8iP1YHnf379qgjza/8y/pI5kjofZLxe1Qd2AOPb5YIPtBvcGcJQCvUt
b5ubcUYi/vLFBf+QqjjhwXjHGU41IOoSBu9JPdx+8/7yBpji11AxRl3GFBtv330V
ezbhCwOBDL2JfLxDXnKklgqx
-----END PRIVATE KEY-----
-----BEGIN CERTIFICATE-----
MIIENTCCAx2gAwIBAgIBADANBgkqhkiG9w0BAQsFADBtMQswCQYDVQQGEwJGUjEP
MA0GA1UECAwGRnJhbmNlMREwDwYDVQQKDAhCbHVlTWluZDERMA8GA1UECwwIQmx1
ZU1pbmQxJzAlBgNVBAMMHmNhLWJtLTE3MDc0MTIyNjcuYmx1ZS1taW5kLm5ldDAg
Fw0yNDAyMDgxNzExMDdaGA8yMDUyMTEwNzE3MTEwN1owbTELMAkGA1UEBhMCRlIx
DzANBgNVBAgMBkZyYW5jZTERMA8GA1UECgwIQmx1ZU1pbmQxETAPBgNVBAsMCEJs
dWVNaW5kMScwJQYDVQQDDB5jYS1ibS0xNzA3NDEyMjY3LmJsdWUtbWluZC5uZXQw
ggEiMA0GCSqGSIb3DQEBAQUAA4IBDwAwggEKAoIBAQC94+tJ2MGp2iKQWOZVN6VP
wzyHZZetaRQumfCMfufI5AxbNKHpbaOHWqlDRStISn3keaqn8uH3wn8SsEqalGRE
rpoUTMglmLkcqTBXM1VkbJk8bu8tSKi7lhUp4hiRxhsikZs2HaFO9XgUiJLixpOs
LNb9kJZTrDFXutfiwCv6QxjSdGX8dVZM0IjjInFJEVRMNarHR/YD9ZeKHrp8TatM
n77mekK9yeOmJJIRM3EfXrM9YNzjZxCn4iPsxMfyPO2IJ/5Xohe2DOh8lea+WF2m
NMits/MZ+UzGVOhrDbBK5ZbdGMvY8KHkl9AzjTPVrYaC3lfDdFavOJEsSaoP1DFL
AgMBAAGjgd0wgdowHQYDVR0OBBYEFKEXP5iCBxUjz4KorJ+HUde2pzyoMIGXBgNV
HSMEgY8wgYyAFKEXP5iCBxUjz4KorJ+HUde2pzyooXGkbzBtMQswCQYDVQQGEwJG
UjEPMA0GA1UECAwGRnJhbmNlMREwDwYDVQQKDAhCbHVlTWluZDERMA8GA1UECwwI
Qmx1ZU1pbmQxJzAlBgNVBAMMHmNhLWJtLTE3MDc0MTIyNjcuYmx1ZS1taW5kLm5l
dIIBADAMBgNVHRMEBTADAQH/MBEGCWCGSAGG+EIBAQQEAwICBDANBgkqhkiG9w0B
AQsFAAOCAQEAX9MXnbKKDopdp/bYi9QMSXQzgL3g2w32R31LVGxTckHAL3Ctk8gj
chJvrvbqSBM97sI4I9RV4ANnsddTqTvnJJEfeaDG0uJ4vwcVXzq/XXdw1kMCjo6X
m2e6SqAqLGvEj3HaOUeDqV3N9Ryn4PLUzpc+YDfltPJhZQyAUk2MgJXGmX53w10V
SwW8057EOeywpz29wMO3cWsoe558xwzj6gHaOtvH4dvN9Zn2eGLr8RjzdOfhxiYU
0s31Q0ZkUXJkJQTyCFPONvM6wVtuFKrXCBUcMfDfK9KxeXmTzkm8MLDvCt1wqn7e
RjsDTftPMnOrWQd19fRvKgBvLiVzTitbJw==
-----END CERTIFICATE-----
