Certificate:
    Data:
        Version: 1 (0x0)
        Serial Number: 2 (0x2)
    Signature Algorithm: sha1WithRSAEncryption
        Issuer: C=FR, ST=France, O=Blue Mind, OU=Blue Mind, CN=ca-bm-1390834305.blue-mind.net
        Validity
            Not Before: Jan 27 14:56:46 2014 GMT
            Not After : Jan 25 14:56:46 2024 GMT
        Subject: C=FR, ST=France, O=Blue Mind, OU=Blue Mind, CN=192.168.196.128
        Subject Public Key Info:
            Public Key Algorithm: rsaEncryption
                Public-Key: (2048 bit)
                Modulus:
                    00:f9:e0:49:eb:fa:03:66:21:69:3b:65:6b:78:b9:
                    e4:b6:8e:c9:c3:f1:5d:4e:bc:e0:ca:72:d6:34:3b:
                    81:db:b9:29:c2:a6:1d:81:2c:51:83:1e:cb:b9:c8:
                    04:0a:b6:15:0b:86:64:b3:c3:4b:a8:e3:01:8d:21:
                    46:0e:48:71:09:15:f9:b8:fd:ff:32:18:fd:3d:36:
                    03:03:98:44:06:c7:43:44:7a:f7:31:ee:60:a7:d0:
                    21:6c:c8:22:3f:d7:a1:d1:dd:78:74:ab:c5:db:d1:
                    77:04:d0:12:86:ec:72:8c:2a:79:e0:1b:3f:09:db:
                    f3:03:c0:20:c0:32:20:bd:4d:30:7e:e8:a4:6c:d8:
                    f7:24:40:09:e9:dc:ad:2e:1b:27:21:d1:51:98:73:
                    d2:d4:ea:21:32:36:b8:52:df:8e:53:52:1a:64:49:
                    c1:5e:7a:6f:24:5a:57:3b:84:b0:72:04:28:cb:39:
                    7b:55:6d:f0:29:37:db:67:e8:fd:8f:b7:28:86:bb:
                    81:73:ca:49:45:a1:27:35:4b:c9:1f:ed:cd:38:9a:
                    2f:7c:e5:b1:49:89:25:00:fa:39:2b:d0:e6:8f:55:
                    f4:03:17:d7:d8:aa:f6:66:90:41:ee:d6:cb:ec:44:
                    11:21:cc:f3:f3:8b:ad:3a:47:3e:90:82:83:2d:4a:
                    42:f3
                Exponent: 65537 (0x10001)
    Signature Algorithm: sha1WithRSAEncryption
         4d:a5:97:26:d5:0b:11:cd:c1:9d:3e:9b:24:6a:92:30:7d:5d:
         4f:da:17:64:31:e8:53:0e:85:3a:32:ec:35:43:d9:3f:27:5a:
         e8:26:d4:d7:e2:ca:63:ec:46:2f:61:7a:5b:f3:24:86:b7:a6:
         4e:75:d8:0d:82:3d:03:73:01:e2:a5:75:7d:26:c3:77:76:19:
         6f:35:88:72:58:04:ff:c9:10:c5:7d:3a:13:c5:30:37:b3:c3:
         60:ca:5e:d5:3e:bc:f2:9a:e7:68:64:e8:fa:20:4a:c6:e9:49:
         5d:b7:c8:27:87:14:b7:76:d2:e8:46:8f:d4:82:6c:45:d9:b3:
         0f:ac:96:a5:a7:82:18:1f:9e:ce:ad:f5:2d:3a:23:96:6d:4e:
         32:e3:f1:7d:2d:3a:8a:09:10:6d:7e:ae:49:c7:6a:a8:0b:e3:
         c7:6e:72:18:e8:0d:b7:1d:11:62:51:d4:5c:f1:95:ec:34:f7:
         57:c6:da:8f:cf:4a:7f:6f:ce:e0:65:d4:c3:44:98:66:4f:ee:
         50:68:88:50:2d:cd:1d:ca:32:a4:c6:d0:0c:2d:eb:6e:e8:09:
         7d:36:7b:4a:72:b0:d0:88:2c:0f:5f:07:16:28:b4:57:7e:82:
         b1:0d:c8:01:45:10:b2:95:7b:28:4c:ac:cb:12:69:b3:1d:c9:
         2a:7e:88:dc
-----BEGIN CERTIFICATE-----
MIIDQzCCAisCAQIwDQYJKoZIhvcNAQEFBQAwbzELMAkGA1UEBhMCRlIxDzANBgNV
BAgTBkZyYW5jZTESMBAGA1UEChMJQmx1ZSBNaW5kMRIwEAYDVQQLEwlCbHVlIE1p
bmQxJzAlBgNVBAMTHmNhLWJtLTEzOTA4MzQzMDUuYmx1ZS1taW5kLm5ldDAeFw0x
NDAxMjcxNDU2NDZaFw0yNDAxMjUxNDU2NDZaMGAxCzAJBgNVBAYTAkZSMQ8wDQYD
VQQIEwZGcmFuY2UxEjAQBgNVBAoTCUJsdWUgTWluZDESMBAGA1UECxMJQmx1ZSBN
aW5kMRgwFgYDVQQDEw8xOTIuMTY4LjE5Ni4xMjgwggEiMA0GCSqGSIb3DQEBAQUA
A4IBDwAwggEKAoIBAQD54Enr+gNmIWk7ZWt4ueS2jsnD8V1OvODKctY0O4HbuSnC
ph2BLFGDHsu5yAQKthULhmSzw0uo4wGNIUYOSHEJFfm4/f8yGP09NgMDmEQGx0NE
evcx7mCn0CFsyCI/16HR3Xh0q8Xb0XcE0BKG7HKMKnngGz8J2/MDwCDAMiC9TTB+
6KRs2PckQAnp3K0uGych0VGYc9LU6iEyNrhS345TUhpkScFeem8kWlc7hLByBCjL
OXtVbfApN9tn6P2PtyiGu4FzyklFoSc1S8kf7c04mi985bFJiSUA+jkr0OaPVfQD
F9fYqvZmkEHu1svsRBEhzPPzi606Rz6QgoMtSkLzAgMBAAEwDQYJKoZIhvcNAQEF
BQADggEBAE2llybVCxHNwZ0+myRqkjB9XU/aF2Qx6FMOhToy7DVD2T8nWugm1Nfi
ymPsRi9helvzJIa3pk512A2CPQNzAeKldX0mw3d2GW81iHJYBP/JEMV9OhPFMDez
w2DKXtU+vPKa52hk6PogSsbpSV23yCeHFLd20uhGj9SCbEXZsw+slqWnghgfns6t
9S06I5ZtTjLj8X0tOooJEG1+rknHaqgL48duchjoDbcdEWJR1Fzxlew091fG2o/P
Sn9vzuBl1MNEmGZP7lBoiFAtzR3KMqTG0Awt627oCX02e0pysNCILA9fBxYotFd+
grENyAFFELKVeyhMrMsSabMdySp+iNw=
-----END CERTIFICATE-----
-----BEGIN CERTIFICATE-----
MIIEOTCCAyGgAwIBAgIBADANBgkqhkiG9w0BAQUFADBvMQswCQYDVQQGEwJGUjEP
MA0GA1UECBMGRnJhbmNlMRIwEAYDVQQKEwlCbHVlIE1pbmQxEjAQBgNVBAsTCUJs
dWUgTWluZDEnMCUGA1UEAxMeY2EtYm0tMTM5MDgzNDMwNS5ibHVlLW1pbmQubmV0
MB4XDTE0MDEyNzE0NTE0NVoXDTM0MDMxMzE0NTE0NVowbzELMAkGA1UEBhMCRlIx
DzANBgNVBAgTBkZyYW5jZTESMBAGA1UEChMJQmx1ZSBNaW5kMRIwEAYDVQQLEwlC
bHVlIE1pbmQxJzAlBgNVBAMTHmNhLWJtLTEzOTA4MzQzMDUuYmx1ZS1taW5kLm5l
dDCCASIwDQYJKoZIhvcNAQEBBQADggEPADCCAQoCggEBAN9ig2/HXcQxpb0Z2UE+
XFo0EITMQ9m6z7nx+ET1WRw/k2ZVFj45odZRGJVRM9eD+p78DWTTGI0mOOvX/sMf
bHbNZHuK5LK2SSTTHNBxc9EBklCaLDneP0BbB7DUz92SPERU1q/18wA0lljptlDH
f4c6/ADhLymxJ5sCg3Qgy634/thdBJXqPu80eUu7X227Q9tdR49sIPzbBlnxUYNv
+iMoeJ3aFqSRs6DYni4rIG2hYiyuhol0yPRuQfnWinABTZxWHYPg/loyniWqaPMw
uHcT5EFS7+MXjKbVrWPhXvV9RI5yTcYUJJ0avobNY++oDQ1OrQ8uJZTrP7khTzBB
XvMCAwEAAaOB3zCB3DAdBgNVHQ4EFgQUCMthn/xmHghOE/qOi8uQMmni+xAwgZkG
A1UdIwSBkTCBjoAUCMthn/xmHghOE/qOi8uQMmni+xChc6RxMG8xCzAJBgNVBAYT
AkZSMQ8wDQYDVQQIEwZGcmFuY2UxEjAQBgNVBAoTCUJsdWUgTWluZDESMBAGA1UE
CxMJQmx1ZSBNaW5kMScwJQYDVQQDEx5jYS1ibS0xMzkwODM0MzA1LmJsdWUtbWlu
ZC5uZXSCAQAwDAYDVR0TBAUwAwEB/zARBglghkgBhvhCAQEEBAMCAgQwDQYJKoZI
hvcNAQEFBQADggEBAEjaSS9PnJ9yzqxGYNfxu1ittibeEKR/UfQfbDPEOAr+qvjo
VDF2utoC/7nt+6avNF9HhWPcztApnQP+DDGtGaDRi/yxkmkh8weluxmeyG6mZw/+
WYVEt8l/IiRuezx9bW95zo+IkOnU68VfTrhnSRnDgGUx1KOw0YAvz2qrX4ZLRoSn
Q0q0fBJn5ehg0sFyx0012GrnCj/kyfOk1pYjsas9sba227+EXpOhRsYfWeg4RgnK
k45c80/awOPhcvTzWUxs4rU4bvir6UR0HbOL/h8Rk7yxd8pGT0LKuepXprLAdgNC
cuHlRSTe8KsotfW1k+F7e6dLb74K9bBr8PHTifo=
-----END CERTIFICATE-----
